target datalayout = "e-m:e-p270:32:32-p271:32:32-p272:64:64-i64:64-i128:128-f80:128-n8:16:32:64-S128"
target triple = "x86_64-pc-linux-gnu"

%union.bio_addr_st = type { %struct.sockaddr_in6, [84 x i8] }
%struct.sockaddr_in6 = type { i16, i16, i32, %struct.in6_addr, i32 }
%struct.in6_addr = type { %union.anon }
%union.anon = type { [4 x i32] }

@.str = private unnamed_addr constant [33 x i8] c"../openssl/crypto/bio/bio_sock.c\00", align 1
@__func__.BIO_accept = private unnamed_addr constant [11 x i8] c"BIO_accept\00", align 1
@.str.3 = private unnamed_addr constant [17 x i8] c"calling accept()\00", align 1
@.str.4 = private unnamed_addr constant [2 x i8] c":\00", align 1

; Function Attrs: nounwind uwtable
define i32 @BIO_accept(i32 noundef %0, ptr noundef %1) #0 {
  %3 = alloca i32, align 4
  %4 = alloca ptr, align 8
  %5 = alloca %union.bio_addr_st, align 4
  %6 = alloca i32, align 4
  %7 = alloca ptr, align 8
  %8 = alloca ptr, align 8
  store i32 %0, ptr %3, align 4, !tbaa !10
  store ptr %1, ptr %4, align 8, !tbaa !19
  call void @llvm.lifetime.start.p0(i64 112, ptr %5) #8
  call void @llvm.lifetime.start.p0(i64 4, ptr %6) #8
  store i32 -1, ptr %6, align 4, !tbaa !10
  %9 = load i32, ptr %3, align 4, !tbaa !10
  %10 = call i32 @BIO_accept_ex(i32 noundef %9, ptr noundef %5, i32 noundef 0)
  store i32 %10, ptr %6, align 4, !tbaa !10
  %11 = load i32, ptr %6, align 4, !tbaa !10
  %12 = icmp eq i32 %11, -1
  br i1 %12, label %13, label %21

13:                                               ; preds = %2
  %14 = load i32, ptr %6, align 4, !tbaa !10
  %15 = call i32 @BIO_sock_should_retry(i32 noundef %14)
  %16 = icmp ne i32 %15, 0
  br i1 %16, label %17, label %18

17:                                               ; preds = %13
  store i32 -2, ptr %6, align 4, !tbaa !10
  br label %66

18:                                               ; preds = %13
  call void @ERR_new()
  call void @ERR_set_debug(ptr noundef @.str, i32 noundef 298, ptr noundef @__func__.BIO_accept)
  %19 = call ptr @__errno_location() #9
  %20 = load i32, ptr %19, align 4, !tbaa !10
  call void (i32, i32, ptr, ...) @ERR_set_error(i32 noundef 2, i32 noundef %20, ptr noundef @.str.3)
  call void @ERR_new()
  call void @ERR_set_debug(ptr noundef @.str, i32 noundef 300, ptr noundef @__func__.BIO_accept)
  call void (i32, i32, ptr, ...) @ERR_set_error(i32 noundef 32, i32 noundef 100, ptr noundef null)
  br label %66

21:                                               ; preds = %2
  %22 = load ptr, ptr %4, align 8, !tbaa !19
  %23 = icmp ne ptr %22, null
  br i1 %23, label %24, label %65

24:                                               ; preds = %21
  call void @llvm.lifetime.start.p0(i64 8, ptr %7) #8
  %25 = call ptr @BIO_ADDR_hostname_string(ptr noundef %5, i32 noundef 1)
  store ptr %25, ptr %7, align 8, !tbaa !3
  call void @llvm.lifetime.start.p0(i64 8, ptr %8) #8
  %26 = call ptr @BIO_ADDR_service_string(ptr noundef %5, i32 noundef 1)
  store ptr %26, ptr %8, align 8, !tbaa !3
  %27 = load ptr, ptr %7, align 8, !tbaa !3
  %28 = icmp ne ptr %27, null
  br i1 %28, label %29, label %41

29:                                               ; preds = %24
  %30 = load ptr, ptr %8, align 8, !tbaa !3
  %31 = icmp ne ptr %30, null
  br i1 %31, label %32, label %41

32:                                               ; preds = %29
  %33 = load ptr, ptr %7, align 8, !tbaa !3
  %34 = call i64 @strlen(ptr noundef %33) #10
  %35 = load ptr, ptr %8, align 8, !tbaa !3
  %36 = call i64 @strlen(ptr noundef %35) #10
  %37 = add i64 %34, %36
  %38 = add i64 %37, 2
  %39 = call noalias ptr @CRYPTO_zalloc(i64 noundef %38, ptr noundef @.str, i32 noundef 308)
  %40 = load ptr, ptr %4, align 8, !tbaa !19
  store ptr %39, ptr %40, align 8, !tbaa !3
  br label %43

41:                                               ; preds = %29, %24
  %42 = load ptr, ptr %4, align 8, !tbaa !19
  store ptr null, ptr %42, align 8, !tbaa !3
  call void @ERR_new()
  call void @ERR_set_debug(ptr noundef @.str, i32 noundef 311, ptr noundef @__func__.BIO_accept)
  call void (i32, i32, ptr, ...) @ERR_set_error(i32 noundef 32, i32 noundef 524320, ptr noundef null)
  br label %43

43:                                               ; preds = %41, %32
  %44 = load ptr, ptr %4, align 8, !tbaa !19
  %45 = load ptr, ptr %44, align 8, !tbaa !3
  %46 = icmp eq ptr %45, null
  br i1 %46, label %47, label %50

47:                                               ; preds = %43
  %48 = load i32, ptr %6, align 4, !tbaa !10
  %49 = call i32 @BIO_closesocket(i32 noundef %48)
  store i32 -1, ptr %6, align 4, !tbaa !10
  br label %62

50:                                               ; preds = %43
  %51 = load ptr, ptr %4, align 8, !tbaa !19
  %52 = load ptr, ptr %51, align 8, !tbaa !3
  %53 = load ptr, ptr %7, align 8, !tbaa !3
  %54 = call ptr @strcpy(ptr noundef %52, ptr noundef %53) #8
  %55 = load ptr, ptr %4, align 8, !tbaa !19
  %56 = load ptr, ptr %55, align 8, !tbaa !3
  %57 = call ptr @strcat(ptr noundef %56, ptr noundef @.str.4) #8
  %58 = load ptr, ptr %4, align 8, !tbaa !19
  %59 = load ptr, ptr %58, align 8, !tbaa !3
  %60 = load ptr, ptr %8, align 8, !tbaa !3
  %61 = call ptr @strcat(ptr noundef %59, ptr noundef %60) #8
  br label %62

62:                                               ; preds = %50, %47
  %63 = load ptr, ptr %7, align 8, !tbaa !3
  call void @CRYPTO_free(ptr noundef %63, ptr noundef @.str, i32 noundef 322)
  %64 = load ptr, ptr %8, align 8, !tbaa !3
  call void @CRYPTO_free(ptr noundef %64, ptr noundef @.str, i32 noundef 323)
  call void @llvm.lifetime.end.p0(i64 8, ptr %8) #8
  call void @llvm.lifetime.end.p0(i64 8, ptr %7) #8
  br label %65

65:                                               ; preds = %62, %21
  br label %66

66:                                               ; preds = %65, %18, %17
  %67 = load i32, ptr %6, align 4, !tbaa !10
  call void @llvm.lifetime.end.p0(i64 4, ptr %6) #8
  call void @llvm.lifetime.end.p0(i64 112, ptr %5) #8
  ret i32 %67
}