; Function Attrs: nounwind uwtable
define i32 @BIO_accept(i32 noundef %0, ptr noundef captures(address_is_null) %1) local_unnamed_addr #0 {
  %3 = alloca %union.bio_addr_st, align 4
  call void @llvm.lifetime.start.p0(i64 112, ptr nonnull %3) #9
  %4 = call i32 @BIO_accept_ex(i32 noundef %0, ptr noundef nonnull %3, i32 noundef 0) #9
  %5 = icmp eq i32 %4, -1
  br i1 %5, label %6, label %11

6:                                                ; preds = %2
  %7 = call i32 @BIO_sock_should_retry(i32 noundef -1) #9
  %.not26 = icmp eq i32 %7, 0
  br i1 %.not26, label %8, label %35

8:                                                ; preds = %6
  call void @ERR_new() #9
  call void @ERR_set_debug(ptr noundef nonnull @.str, i32 noundef 298, ptr noundef nonnull @__func__.BIO_accept) #9
  %9 = tail call ptr @__errno_location() #10
  %10 = load i32, ptr %9, align 4, !tbaa !11
  call void (i32, i32, ptr, ...) @ERR_set_error(i32 noundef 2, i32 noundef %10, ptr noundef nonnull @.str.3) #9
  call void @ERR_new() #9
  call void @ERR_set_debug(ptr noundef nonnull @.str, i32 noundef 300, ptr noundef nonnull @__func__.BIO_accept) #9
  call void (i32, i32, ptr, ...) @ERR_set_error(i32 noundef 32, i32 noundef 100, ptr noundef null) #9
  br label %35

11:                                               ; preds = %2
  %.not = icmp eq ptr %1, null
  br i1 %.not, label %35, label %12

12:                                               ; preds = %11
  %13 = call ptr @BIO_ADDR_hostname_string(ptr noundef nonnull %3, i32 noundef 1) #9
  %14 = call ptr @BIO_ADDR_service_string(ptr noundef nonnull %3, i32 noundef 1) #9
  %15 = icmp ne ptr %13, null
  %16 = icmp ne ptr %14, null
  %or.cond = select i1 %15, i1 %16, i1 false
  br i1 %or.cond, label %17, label %23

17:                                               ; preds = %12
  %18 = call i64 @strlen(ptr noundef nonnull dereferenceable(1) %13) #11
  %19 = call i64 @strlen(ptr noundef nonnull dereferenceable(1) %14) #11
  %20 = add i64 %18, 2
  %21 = add i64 %20, %19
  %22 = call noalias ptr @CRYPTO_zalloc(i64 noundef %21, ptr noundef nonnull @.str, i32 noundef 308) #9
  store ptr %22, ptr %1, align 8, !tbaa !13
  br label %24

23:                                               ; preds = %12
  store ptr null, ptr %1, align 8, !tbaa !13
  call void @ERR_new() #9
  call void @ERR_set_debug(ptr noundef nonnull @.str, i32 noundef 311, ptr noundef nonnull @__func__.BIO_accept) #9
  call void (i32, i32, ptr, ...) @ERR_set_error(i32 noundef 32, i32 noundef 524320, ptr noundef null) #9
  %.pr = load ptr, ptr %1, align 8, !tbaa !13
  br label %24

24:                                               ; preds = %23, %17
  %25 = phi ptr [ %.pr, %23 ], [ %22, %17 ]
  %26 = icmp eq ptr %25, null
  br i1 %26, label %27, label %29

27:                                               ; preds = %24
  %28 = call i32 @BIO_closesocket(i32 noundef %4) #9
  br label %34

29:                                               ; preds = %24
  %30 = call ptr @strcpy(ptr noundef nonnull dereferenceable(1) %25, ptr noundef nonnull dereferenceable(1) %13) #9
  %31 = load ptr, ptr %1, align 8, !tbaa !13
  %strlen = call i64 @strlen(ptr nonnull dereferenceable(1) %31)
  %endptr = getelementptr inbounds i8, ptr %31, i64 %strlen
  store i16 58, ptr %endptr, align 1
  %32 = load ptr, ptr %1, align 8, !tbaa !13
  %33 = call ptr @strcat(ptr noundef nonnull dereferenceable(1) %32, ptr noundef nonnull dereferenceable(1) %14) #9
  br label %34

34:                                               ; preds = %29, %27
  %.1 = phi i32 [ -1, %27 ], [ %4, %29 ]
  call void @CRYPTO_free(ptr noundef %13, ptr noundef nonnull @.str, i32 noundef 322) #9
  call void @CRYPTO_free(ptr noundef %14, ptr noundef nonnull @.str, i32 noundef 323) #9
  br label %35

35:                                               ; preds = %6, %11, %34, %8
  %.0 = phi i32 [ -1, %8 ], [ %.1, %34 ], [ %4, %11 ], [ -2, %6 ]
  call void @llvm.lifetime.end.p0(i64 112, ptr nonnull %3) #9
  ret i32 %.0
}